; Function Attrs: nofree norecurse nosync nounwind memory(argmem: readwrite) uwtable
define internal void @weight_h264_pixels8_10_c(ptr noundef captures(none) %0, i64 noundef %1, i32 noundef %2, i32 noundef %3, i32 noundef %4, i32 noundef %5) #1 {
  %7 = ashr i64 %1, 1
  %8 = add nsw i32 %3, 2
  %9 = shl i32 %5, %8
  %.not = icmp eq i32 %3, 0
  %10 = add nsw i32 %3, -1
  %11 = shl nuw i32 1, %10
  %12 = select i1 %.not, i32 0, i32 %11
  %.052 = add nsw i32 %9, %12
  %13 = icmp sgt i32 %2, 0
  br i1 %13, label %.lr.ph, label %._crit_edge

.lr.ph:                                           ; preds = %6, %.lr.ph
  %.076 = phi ptr [ %86, %.lr.ph ], [ %0, %6 ]
  %.05175 = phi i32 [ %85, %.lr.ph ], [ 0, %6 ]
  %14 = load i16, ptr %.076, align 2, !tbaa !37
  %15 = zext i16 %14 to i32
  %16 = mul nsw i32 %4, %15
  %17 = add nsw i32 %16, %.052
  %18 = ashr i32 %17, %3
  %19 = tail call i32 @llvm.smax.i32(i32 %18, i32 0)
  %20 = tail call i32 @llvm.umin.i32(i32 %19, i32 1023)
  %21 = trunc nuw nsw i32 %20 to i16
  store i16 %21, ptr %.076, align 2, !tbaa !37
  %22 = getelementptr inbounds nuw i8, ptr %.076, i64 2
  %23 = load i16, ptr %22, align 2, !tbaa !37
  %24 = zext i16 %23 to i32
  %25 = mul nsw i32 %4, %24
  %26 = add nsw i32 %25, %.052
  %27 = ashr i32 %26, %3
  %28 = tail call i32 @llvm.smax.i32(i32 %27, i32 0)
  %29 = tail call i32 @llvm.umin.i32(i32 %28, i32 1023)
  %30 = trunc nuw nsw i32 %29 to i16
  store i16 %30, ptr %22, align 2, !tbaa !37
  %31 = getelementptr inbounds nuw i8, ptr %.076, i64 4
  %32 = load i16, ptr %31, align 2, !tbaa !37
  %33 = zext i16 %32 to i32
  %34 = mul nsw i32 %4, %33
  %35 = add nsw i32 %34, %.052
  %36 = ashr i32 %35, %3
  %37 = tail call i32 @llvm.smax.i32(i32 %36, i32 0)
  %38 = tail call i32 @llvm.umin.i32(i32 %37, i32 1023)
  %39 = trunc nuw nsw i32 %38 to i16
  store i16 %39, ptr %31, align 2, !tbaa !37
  %40 = getelementptr inbounds nuw i8, ptr %.076, i64 6
  %41 = load i16, ptr %40, align 2, !tbaa !37
  %42 = zext i16 %41 to i32
  %43 = mul nsw i32 %4, %42
  %44 = add nsw i32 %43, %.052
  %45 = ashr i32 %44, %3
  %46 = tail call i32 @llvm.smax.i32(i32 %45, i32 0)
  %47 = tail call i32 @llvm.umin.i32(i32 %46, i32 1023)
  %48 = trunc nuw nsw i32 %47 to i16
  store i16 %48, ptr %40, align 2, !tbaa !37
  %49 = getelementptr inbounds nuw i8, ptr %.076, i64 8
  %50 = load i16, ptr %49, align 2, !tbaa !37
  %51 = zext i16 %50 to i32
  %52 = mul nsw i32 %4, %51
  %53 = add nsw i32 %52, %.052
  %54 = ashr i32 %53, %3
  %55 = tail call i32 @llvm.smax.i32(i32 %54, i32 0)
  %56 = tail call i32 @llvm.umin.i32(i32 %55, i32 1023)
  %57 = trunc nuw nsw i32 %56 to i16
  store i16 %57, ptr %49, align 2, !tbaa !37
  %58 = getelementptr inbounds nuw i8, ptr %.076, i64 10
  %59 = load i16, ptr %58, align 2, !tbaa !37
  %60 = zext i16 %59 to i32
  %61 = mul nsw i32 %4, %60
  %62 = add nsw i32 %61, %.052
  %63 = ashr i32 %62, %3
  %64 = tail call i32 @llvm.smax.i32(i32 %63, i32 0)
  %65 = tail call i32 @llvm.umin.i32(i32 %64, i32 1023)
  %66 = trunc nuw nsw i32 %65 to i16
  store i16 %66, ptr %58, align 2, !tbaa !37
  %67 = getelementptr inbounds nuw i8, ptr %.076, i64 12
  %68 = load i16, ptr %67, align 2, !tbaa !37
  %69 = zext i16 %68 to i32
  %70 = mul nsw i32 %4, %69
  %71 = add nsw i32 %70, %.052
  %72 = ashr i32 %71, %3
  %73 = tail call i32 @llvm.smax.i32(i32 %72, i32 0)
  %74 = tail call i32 @llvm.umin.i32(i32 %73, i32 1023)
  %75 = trunc nuw nsw i32 %74 to i16
  store i16 %75, ptr %67, align 2, !tbaa !37
  %76 = getelementptr inbounds nuw i8, ptr %.076, i64 14
  %77 = load i16, ptr %76, align 2, !tbaa !37
  %78 = zext i16 %77 to i32
  %79 = mul nsw i32 %4, %78
  %80 = add nsw i32 %79, %.052
  %81 = ashr i32 %80, %3
  %82 = tail call i32 @llvm.smax.i32(i32 %81, i32 0)
  %83 = tail call i32 @llvm.umin.i32(i32 %82, i32 1023)
  %84 = trunc nuw nsw i32 %83 to i16
  store i16 %84, ptr %76, align 2, !tbaa !37
  %85 = add nuw nsw i32 %.05175, 1
  %86 = getelementptr inbounds i16, ptr %.076, i64 %7
  %exitcond.not = icmp eq i32 %85, %2
  br i1 %exitcond.not, label %._crit_edge, label %.lr.ph, !llvm.loop !60

._crit_edge:                                      ; preds = %.lr.ph, %6
  ret void
}